target datalayout = "e-m:e-p270:32:32-p271:32:32-p272:64:64-i64:64-i128:128-f80:128-n8:16:32:64-S128"
target triple = "x86_64-pc-linux-gnu"

%"class.std::__cxx11::basic_string" = type { %"struct.std::__cxx11::basic_string<char>::_Alloc_hider", i64, %union.anon }
%"struct.std::__cxx11::basic_string<char>::_Alloc_hider" = type { ptr }
%union.anon = type { i64, [8 x i8] }
%"class.duckdb_parquet::SizeStatistics" = type <{ %"class.duckdb_apache::thrift::TBase", i64, %"class.duckdb::vector", %"class.duckdb::vector", %"struct.duckdb_parquet::_SizeStatistics__isset", [7 x i8] }>
%"class.duckdb_apache::thrift::TBase" = type { ptr }
%"class.duckdb::vector" = type { %"class.std::vector" }
%"class.std::vector" = type { %"struct.std::_Vector_base" }
%"struct.std::_Vector_base" = type { %"struct.std::_Vector_base<long, std::allocator<long>>::_Vector_impl" }
%"struct.std::_Vector_base<long, std::allocator<long>>::_Vector_impl" = type { %"struct.std::_Vector_base<long, std::allocator<long>>::_Vector_impl_data" }
%"struct.std::_Vector_base<long, std::allocator<long>>::_Vector_impl_data" = type { ptr, ptr, ptr }
%"struct.duckdb_parquet::_SizeStatistics__isset" = type { i8 }
%"class.duckdb_parquet::Statistics" = type <{ %"class.duckdb_apache::thrift::TBase", %"class.std::__cxx11::basic_string", %"class.std::__cxx11::basic_string", i64, i64, %"class.std::__cxx11::basic_string", %"class.std::__cxx11::basic_string", i8, i8, %"struct.duckdb_parquet::_Statistics__isset", [5 x i8] }>
%"struct.duckdb_parquet::_Statistics__isset" = type { i8 }
%"class.duckdb_parquet::ColumnMetaData" = type <{ %"class.duckdb_apache::thrift::TBase", i32, [4 x i8], %"class.duckdb::vector.6", %"class.duckdb::vector.12", i32, [4 x i8], i64, i64, i64, %"class.duckdb::vector.18", i64, i64, i64, %"class.duckdb_parquet::Statistics", %"class.duckdb::vector.24", i64, i32, [4 x i8], %"class.duckdb_parquet::SizeStatistics", %"struct.duckdb_parquet::_ColumnMetaData__isset", [7 x i8] }>
%"class.duckdb::vector.6" = type { %"class.std::vector.7" }
%"class.std::vector.7" = type { %"struct.std::_Vector_base.8" }
%"struct.std::_Vector_base.8" = type { %"struct.std::_Vector_base<duckdb_parquet::Encoding::type, std::allocator<duckdb_parquet::Encoding::type>>::_Vector_impl" }
%"struct.std::_Vector_base<duckdb_parquet::Encoding::type, std::allocator<duckdb_parquet::Encoding::type>>::_Vector_impl" = type { %"struct.std::_Vector_base<duckdb_parquet::Encoding::type, std::allocator<duckdb_parquet::Encoding::type>>::_Vector_impl_data" }
%"struct.std::_Vector_base<duckdb_parquet::Encoding::type, std::allocator<duckdb_parquet::Encoding::type>>::_Vector_impl_data" = type { ptr, ptr, ptr }
%"class.duckdb::vector.12" = type { %"class.std::vector.13" }
%"class.std::vector.13" = type { %"struct.std::_Vector_base.14" }
%"struct.std::_Vector_base.14" = type { %"struct.std::_Vector_base<std::__cxx11::basic_string<char>, std::allocator<std::__cxx11::basic_string<char>>>::_Vector_impl" }
%"struct.std::_Vector_base<std::__cxx11::basic_string<char>, std::allocator<std::__cxx11::basic_string<char>>>::_Vector_impl" = type { %"struct.std::_Vector_base<std::__cxx11::basic_string<char>, std::allocator<std::__cxx11::basic_string<char>>>::_Vector_impl_data" }
%"struct.std::_Vector_base<std::__cxx11::basic_string<char>, std::allocator<std::__cxx11::basic_string<char>>>::_Vector_impl_data" = type { ptr, ptr, ptr }
%"class.duckdb::vector.18" = type { %"class.std::vector.19" }
%"class.std::vector.19" = type { %"struct.std::_Vector_base.20" }
%"struct.std::_Vector_base.20" = type { %"struct.std::_Vector_base<duckdb_parquet::KeyValue, std::allocator<duckdb_parquet::KeyValue>>::_Vector_impl" }
%"struct.std::_Vector_base<duckdb_parquet::KeyValue, std::allocator<duckdb_parquet::KeyValue>>::_Vector_impl" = type { %"struct.std::_Vector_base<duckdb_parquet::KeyValue, std::allocator<duckdb_parquet::KeyValue>>::_Vector_impl_data" }
%"struct.std::_Vector_base<duckdb_parquet::KeyValue, std::allocator<duckdb_parquet::KeyValue>>::_Vector_impl_data" = type { ptr, ptr, ptr }
%"class.duckdb::vector.24" = type { %"class.std::vector.25" }
%"class.std::vector.25" = type { %"struct.std::_Vector_base.26" }
%"struct.std::_Vector_base.26" = type { %"struct.std::_Vector_base<duckdb_parquet::PageEncodingStats, std::allocator<duckdb_parquet::PageEncodingStats>>::_Vector_impl" }
%"struct.std::_Vector_base<duckdb_parquet::PageEncodingStats, std::allocator<duckdb_parquet::PageEncodingStats>>::_Vector_impl" = type { %"struct.std::_Vector_base<duckdb_parquet::PageEncodingStats, std::allocator<duckdb_parquet::PageEncodingStats>>::_Vector_impl_data" }
%"struct.std::_Vector_base<duckdb_parquet::PageEncodingStats, std::allocator<duckdb_parquet::PageEncodingStats>>::_Vector_impl_data" = type { ptr, ptr, ptr }
%"struct.duckdb_parquet::_ColumnMetaData__isset" = type { i8 }

; Function Attrs: mustprogress nounwind uwtable
define void @_ZN14duckdb_parquet14ColumnMetaData23__set_index_page_offsetEl(ptr noundef nonnull align 8 dereferenceable(417) %0, i64 noundef %1) #1 align 2 {
  %3 = alloca ptr, align 8
  %4 = alloca i64, align 8
  store ptr %0, ptr %3, align 8, !tbaa !349
  store i64 %1, ptr %4, align 8, !tbaa !78
  %5 = load ptr, ptr %3, align 8
  %6 = load i64, ptr %4, align 8, !tbaa !78
  %7 = getelementptr inbounds nuw %"class.duckdb_parquet::ColumnMetaData", ptr %5, i32 0, i32 12
  store i64 %6, ptr %7, align 8, !tbaa !379
  %8 = getelementptr inbounds nuw %"class.duckdb_parquet::ColumnMetaData", ptr %5, i32 0, i32 20
  %9 = load i8, ptr %8, align 8
  %10 = and i8 %9, -3
  %11 = or i8 %10, 2
  store i8 %11, ptr %8, align 8
  ret void
}