; Function Attrs: mustprogress nofree norecurse nosync nounwind willreturn memory(argmem: readwrite) uwtable
define void @_ZN14duckdb_parquet14ColumnMetaData23__set_index_page_offsetEl(ptr noundef nonnull align 8 captures(none) dereferenceable(417) initializes((128, 136)) %0, i64 noundef %1) local_unnamed_addr #10 align 2 {
  %3 = getelementptr inbounds nuw i8, ptr %0, i64 128
  store i64 %1, ptr %3, align 8, !tbaa !538
  %4 = getelementptr inbounds nuw i8, ptr %0, i64 416
  %5 = load i8, ptr %4, align 8
  %6 = or i8 %5, 2
  store i8 %6, ptr %4, align 8
  ret void
}